target datalayout = "e-m:e-p270:32:32-p271:32:32-p272:64:64-i64:64-i128:128-f80:128-n8:16:32:64-S128"
target triple = "x86_64-pc-linux-gnu"

%struct._xmlNs = type { ptr, i32, ptr, ptr, ptr, ptr }

; Function Attrs: nounwind uwtable
define hidden zeroext i1 @dom_ns_is_also_an_attribute(ptr noundef %0) #0 {
  %2 = alloca ptr, align 8
  store ptr %0, ptr %2, align 8
  %3 = load ptr, ptr %2, align 8
  %4 = getelementptr inbounds %struct._xmlNs, ptr %3, i32 0, i32 4
  %5 = load ptr, ptr %4, align 8
  %6 = icmp ne ptr %5, null
  ret i1 %6
}

; Function Attrs: nounwind uwtable
define hidden void @dom_ns_compat_mark_attribute(ptr noundef %0) #0 {
  %2 = alloca ptr, align 8
  store ptr %0, ptr %2, align 8
  %3 = load ptr, ptr %2, align 8
  %4 = getelementptr inbounds %struct._xmlNs, ptr %3, i32 0, i32 4
  store ptr inttoptr (i64 1 to ptr), ptr %4, align 8
  ret void
}

; Function Attrs: nounwind uwtable
define hidden void @dom_ns_compat_mark_attribute_list(ptr noundef %0) #0 {
  %2 = alloca ptr, align 8
  store ptr %0, ptr %2, align 8
  br label %3

3:                                                ; preds = %6, %1
  %4 = load ptr, ptr %2, align 8
  %5 = icmp ne ptr %4, null
  br i1 %5, label %6, label %11

6:                                                ; preds = %3
  %7 = load ptr, ptr %2, align 8
  call void @dom_ns_compat_mark_attribute(ptr noundef %7)
  %8 = load ptr, ptr %2, align 8
  %9 = getelementptr inbounds %struct._xmlNs, ptr %8, i32 0, i32 0
  %10 = load ptr, ptr %9, align 8
  store ptr %10, ptr %2, align 8
  br label %3

11:                                               ; preds = %3
  ret void
}

; Function Attrs: nounwind uwtable
define hidden void @dom_ns_compat_copy_attribute_list_mark(ptr noundef %0, ptr noundef %1) #0 {
  %3 = alloca ptr, align 8
  %4 = alloca ptr, align 8
  store ptr %0, ptr %3, align 8
  store ptr %1, ptr %4, align 8
  br label %5

5:                                                ; preds = %15, %2
  %6 = load ptr, ptr %4, align 8
  %7 = icmp ne ptr %6, null
  br i1 %7, label %8, label %22

8:                                                ; preds = %5
  %9 = load ptr, ptr %3, align 8
  %10 = icmp ne ptr %9, null
  call void @llvm.assume(i1 %10)
  %11 = load ptr, ptr %4, align 8
  %12 = call zeroext i1 @dom_ns_is_also_an_attribute(ptr noundef %11)
  br i1 %12, label %13, label %15

13:                                               ; preds = %8
  %14 = load ptr, ptr %3, align 8
  call void @dom_ns_compat_mark_attribute(ptr noundef %14)
  br label %15

15:                                               ; preds = %13, %8
  %16 = load ptr, ptr %3, align 8
  %17 = getelementptr inbounds %struct._xmlNs, ptr %16, i32 0, i32 0
  %18 = load ptr, ptr %17, align 8
  store ptr %18, ptr %3, align 8
  %19 = load ptr, ptr %4, align 8
  %20 = getelementptr inbounds %struct._xmlNs, ptr %19, i32 0, i32 0
  %21 = load ptr, ptr %20, align 8
  store ptr %21, ptr %4, align 8
  br label %5

22:                                               ; preds = %5
  ret void
}

; Function Attrs: nocallback nofree nosync nounwind willreturn memory(inaccessiblemem: write)
declare void @llvm.assume(i1 noundef) #1


!llvm.module.flags = !{!0, !1, !2, !3}

!0 = !{i32 1, !"wchar_size", i32 4}
!1 = !{i32 8, !"PIC Level", i32 2}
!2 = !{i32 7, !"uwtable", i32 2}
!3 = !{i32 7, !"frame-pointer", i32 2}
