; ModuleID = 'bench/php/original/namespace_compat.ll'
source_filename = "bench/php/original/namespace_compat.ll"
target datalayout = "e-m:e-p270:32:32-p271:32:32-p272:64:64-i64:64-i128:128-f80:128-n8:16:32:64-S128"
target triple = "x86_64-pc-linux-gnu"

; Function Attrs: mustprogress nofree norecurse nosync nounwind willreturn memory(argmem: read) uwtable
define hidden zeroext i1 @dom_ns_is_also_an_attribute(ptr nocapture noundef readonly %0) local_unnamed_addr #0 {
  %2 = getelementptr inbounds i8, ptr %0, i64 32
  %3 = load ptr, ptr %2, align 8
  %4 = icmp ne ptr %3, null
  ret i1 %4
}

; Function Attrs: mustprogress nofree norecurse nosync nounwind willreturn memory(argmem: write) uwtable
define hidden void @dom_ns_compat_mark_attribute(ptr nocapture noundef writeonly %0) local_unnamed_addr #1 {
  %2 = getelementptr inbounds i8, ptr %0, i64 32
  store ptr inttoptr (i64 1 to ptr), ptr %2, align 8
  ret void
}

; Function Attrs: nofree norecurse nosync nounwind memory(readwrite, inaccessiblemem: none) uwtable
define hidden void @dom_ns_compat_mark_attribute_list(ptr noundef %0) local_unnamed_addr #2 {
  %.not3 = icmp eq ptr %0, null
  br i1 %.not3, label %._crit_edge, label %.lr.ph

.lr.ph:                                           ; preds = %1, %.lr.ph
  %.04 = phi ptr [ %3, %.lr.ph ], [ %0, %1 ]
  %2 = getelementptr inbounds i8, ptr %.04, i64 32
  store ptr inttoptr (i64 1 to ptr), ptr %2, align 8
  %3 = load ptr, ptr %.04, align 8
  %.not = icmp eq ptr %3, null
  br i1 %.not, label %._crit_edge, label %.lr.ph

._crit_edge:                                      ; preds = %.lr.ph, %1
  ret void
}

; Function Attrs: nofree norecurse nosync nounwind memory(readwrite, inaccessiblemem: write) uwtable
define hidden void @dom_ns_compat_copy_attribute_list_mark(ptr noundef %0, ptr noundef readonly %1) local_unnamed_addr #3 {
  %.not8 = icmp eq ptr %1, null
  br i1 %.not8, label %._crit_edge, label %.lr.ph

.lr.ph:                                           ; preds = %2, %8
  %.010 = phi ptr [ %10, %8 ], [ %1, %2 ]
  %.069 = phi ptr [ %9, %8 ], [ %0, %2 ]
  %3 = icmp ne ptr %.069, null
  tail call void @llvm.assume(i1 %3)
  %4 = getelementptr inbounds i8, ptr %.010, i64 32
  %5 = load ptr, ptr %4, align 8
  %.not7 = icmp eq ptr %5, null
  br i1 %.not7, label %8, label %6

6:                                                ; preds = %.lr.ph
  %7 = getelementptr inbounds i8, ptr %.069, i64 32
  store ptr inttoptr (i64 1 to ptr), ptr %7, align 8
  br label %8

8:                                                ; preds = %6, %.lr.ph
  %9 = load ptr, ptr %.069, align 8
  %10 = load ptr, ptr %.010, align 8
  %.not = icmp eq ptr %10, null
  br i1 %.not, label %._crit_edge, label %.lr.ph

._crit_edge:                                      ; preds = %8, %2
  ret void
}

; Function Attrs: mustprogress nocallback nofree nosync nounwind willreturn memory(inaccessiblemem: write)
declare void @llvm.assume(i1 noundef) #4


!llvm.module.flags = !{!0, !1, !2, !3}

!0 = !{i32 1, !"wchar_size", i32 4}
!1 = !{i32 8, !"PIC Level", i32 2}
!2 = !{i32 7, !"uwtable", i32 2}
!3 = !{i32 7, !"frame-pointer", i32 2}
